; Function Attrs: mustprogress nofree norecurse nosync nounwind willreturn memory(argmem: read) uwtable
define dso_local noundef zeroext i1 @_ZNK5clang11DeclContext20isTransparentContextEv(ptr nocapture noundef nonnull readonly align 8 dereferenceable(32) %0) local_unnamed_addr #2 align 2 {
  %2 = getelementptr inbounds i8, ptr %0, i64 8
  %3 = load i16, ptr %2, align 8
  %4 = and i16 %3, 127
  switch i16 %4, label %8 [
    i16 59, label %5
    i16 3, label %_ZN4llvm3isaIN5clang15LinkageSpecDeclENS1_10ExportDeclEJNS1_14HLSLBufferDeclEEPKNS1_11DeclContextEEEbRKT2_.exit
  ]

5:                                                ; preds = %1
  %6 = load i40, ptr %2, align 8
  %7 = icmp sgt i40 %6, -1
  br label %_ZN4llvm3isaIN5clang15LinkageSpecDeclENS1_10ExportDeclEJNS1_14HLSLBufferDeclEEPKNS1_11DeclContextEEEbRKT2_.exit

8:                                                ; preds = %1
  %9 = icmp eq i16 %4, 5
  %10 = icmp eq i16 %4, 22
  %spec.select.i.i = or i1 %9, %10
  br label %_ZN4llvm3isaIN5clang15LinkageSpecDeclENS1_10ExportDeclEJNS1_14HLSLBufferDeclEEPKNS1_11DeclContextEEEbRKT2_.exit

_ZN4llvm3isaIN5clang15LinkageSpecDeclENS1_10ExportDeclEJNS1_14HLSLBufferDeclEEPKNS1_11DeclContextEEEbRKT2_.exit: ; preds = %1, %8, %5
  %.0 = phi i1 [ %7, %5 ], [ %spec.select.i.i, %8 ], [ true, %1 ]
  ret i1 %.0
}